; Function Attrs: mustprogress uwtable
define hidden void @_ZN4cvc58internal9TrustNode4nullEv(ptr dead_on_unwind noalias writable writeonly sret(%"class.cvc5::internal::TrustNode") align 8 captures(none) initializes((0, 4), (8, 16)) %0) local_unnamed_addr #4 align 2 personality ptr @__gxx_personality_v0 {
  %2 = alloca %"class.cvc5::internal::NodeTemplate", align 8
  tail call void @llvm.experimental.noalias.scope.decl(metadata !58)
  %3 = load ptr, ptr @_ZN4cvc58internal12NodeTemplateILb1EE6s_nullE, align 8, !tbaa !3, !noalias !58
  store ptr %3, ptr %2, align 8, !tbaa !3, !alias.scope !58
  %4 = load i64, ptr %3, align 8, !noalias !58
  %5 = lshr i64 %4, 40
  %6 = trunc nuw nsw i64 %5 to i32
  %7 = and i32 %6, 1048575
  %8 = icmp samesign ult i32 %7, 1048574
  br i1 %8, label %9, label %14, !prof !9

9:                                                ; preds = %1
  %10 = add i64 %4, 1099511627776
  %11 = and i64 %10, 1152920405095219200
  %12 = and i64 %4, -1152920405095219201
  %13 = or disjoint i64 %11, %12
  store i64 %13, ptr %3, align 8, !noalias !58
  br label %_ZN4cvc58internal12NodeTemplateILb1EE4nullEv.exit

14:                                               ; preds = %1
  %15 = icmp eq i32 %7, 1048574
  br i1 %15, label %16, label %_ZN4cvc58internal12NodeTemplateILb1EE4nullEv.exit, !prof !10

16:                                               ; preds = %14
  %17 = or i64 %4, 1152920405095219200
  store i64 %17, ptr %3, align 8, !noalias !58
  tail call void @_ZN4cvc58internal4expr9NodeValue20markRefCountMaxedOutEv(ptr noundef nonnull align 8 dereferenceable(24) %3), !noalias !58
  %.pre = load i64, ptr %3, align 8
  br label %_ZN4cvc58internal12NodeTemplateILb1EE4nullEv.exit

_ZN4cvc58internal12NodeTemplateILb1EE4nullEv.exit: ; preds = %9, %14, %16
  %18 = phi i64 [ %13, %9 ], [ %4, %14 ], [ %.pre, %16 ]
  store i32 4, ptr %0, align 8, !tbaa !26
  %19 = getelementptr inbounds nuw i8, ptr %0, i64 8
  store ptr %3, ptr %19, align 8, !tbaa !3
  %20 = lshr i64 %18, 40
  %21 = trunc nuw nsw i64 %20 to i32
  %22 = and i32 %21, 1048575
  %23 = icmp samesign ult i32 %22, 1048574
  br i1 %23, label %24, label %29, !prof !9

24:                                               ; preds = %_ZN4cvc58internal12NodeTemplateILb1EE4nullEv.exit
  %25 = add i64 %18, 1099511627776
  %26 = and i64 %25, 1152920405095219200
  %27 = and i64 %18, -1152920405095219201
  %28 = or disjoint i64 %26, %27
  store i64 %28, ptr %3, align 8
  br label %33

29:                                               ; preds = %_ZN4cvc58internal12NodeTemplateILb1EE4nullEv.exit
  %30 = icmp eq i32 %22, 1048574
  br i1 %30, label %31, label %33, !prof !10

31:                                               ; preds = %29
  %32 = or i64 %18, 1152920405095219200
  store i64 %32, ptr %3, align 8
  invoke void @_ZN4cvc58internal4expr9NodeValue20markRefCountMaxedOutEv(ptr noundef nonnull align 8 dereferenceable(24) %3)
          to label %._crit_edge unwind label %47

._crit_edge:                                      ; preds = %31
  %.pre1 = load i64, ptr %3, align 8
  br label %33

33:                                               ; preds = %._crit_edge, %29, %24
  %34 = phi i64 [ %.pre1, %._crit_edge ], [ %18, %29 ], [ %28, %24 ]
  %35 = getelementptr inbounds nuw i8, ptr %0, i64 16
  store ptr null, ptr %35, align 8, !tbaa !30
  %36 = and i64 %34, 1152920405095219200
  %.not.i.i = icmp eq i64 %36, 1152920405095219200
  br i1 %.not.i.i, label %_ZN4cvc58internal12NodeTemplateILb1EED2Ev.exit, label %37, !prof !10

37:                                               ; preds = %33
  %38 = add i64 %34, 1152920405095219200
  %39 = and i64 %38, 1152920405095219200
  %40 = and i64 %34, -1152920405095219201
  %41 = or disjoint i64 %39, %40
  store i64 %41, ptr %3, align 8
  %42 = icmp eq i64 %39, 0
  br i1 %42, label %43, label %_ZN4cvc58internal12NodeTemplateILb1EED2Ev.exit, !prof !10

43:                                               ; preds = %37
  invoke void @_ZN4cvc58internal4expr9NodeValue15markForDeletionEv(ptr noundef nonnull align 8 dereferenceable(24) %3)
          to label %_ZN4cvc58internal12NodeTemplateILb1EED2Ev.exit unwind label %44

44:                                               ; preds = %43
  %45 = landingpad { ptr, i32 }
          catch ptr null
  %46 = extractvalue { ptr, i32 } %45, 0
  tail call void @__clang_call_terminate(ptr %46) #18
  unreachable

_ZN4cvc58internal12NodeTemplateILb1EED2Ev.exit:   ; preds = %33, %37, %43
  ret void

47:                                               ; preds = %31
  %48 = landingpad { ptr, i32 }
          cleanup
  call void @_ZN4cvc58internal12NodeTemplateILb1EED2Ev(ptr noundef nonnull align 8 dereferenceable(8) %2) #17
  resume { ptr, i32 } %48
}